P16
00000	----
00000			.area text(ROM,REL,CON)
		;*******************************************************************
		;* Atmel P16 ANSI C Code Generation	Version M-1.8 (Mar 13,2005)
		;*******************************************************************
		$CASE
		;              i -> BP-1
		;          outCb -> BP+13
		;      outBiquad -> BP+12
		;   outProcessId -> BP+11
		;       outIndex -> BP+10
		;  outFunctionId -> BP+9
		; biquadTableLen -> BP+8
		;    biquadTable -> BP+7
		;    nrpnListLen -> BP+6
		;       nrpnList -> BP+5
		;            pcs -> BP+4
		;      processId -> BP+3
		;           nrpn -> BP+2
00000		_resolveNrpn
00000	C04C		SXSP  4
	0004 
		; /* This file contains all dsp routing and initialization */
		; #include <system.h>
		; #include "dspDesigner.h"
		; 
		; /*
		;  * shared_nrpn.c is included here directly because the DSP Designer IDE
		;  * does not automatically add user-created .c files to the build.
		;  * Including it here ensures the two shared dispatch functions
		;  * (shared_NrpnDispatch_GainBiquadComp, shared_NrpnDispatch_DelayBiquad)
		;  * are compiled and available to the linker.
		;  */
		; #ifndef _SKIP_DDD_NRPN_CTRL
		; #include "shared_nrpn.c"
		; #endif
		; 
		; WORD OutBusOf( WORD DSPid, WORD out ){ return( 0x80+((DSPid-0x30)<<3)+out ); }
		; 
		; WORD dsp[NBDSPINITIALIZED];
		; 
		; /*
		;  * Signal flow (2-in / 4-out, 96kHz):
		;  *
		;  *   DAAD0L --> DSP1 (Gain -> EQ -> Compressor) -+-> DSP2 IN[0]: ch-A (Delay->EQ) --> DABD0L
		;  *                                                +-> DSP2 IN[1]: ch-B (Delay->EQ) --> DABD0R
		;  *
		;  *   DAAD0R --> DSP3 (Gain -> EQ -> Compressor) -+-> DSP4 IN[0]: ch-A (Delay->EQ) --> DABD1L
		;  *                                                +-> DSP4 IN[1]: ch-B (Delay->EQ) --> DABD1R
		;  *
		;  * Internal bus encoding in getBus():
		;  *   bit15 set  -> resolve via OutBusOf()
		;  *   bits[7:4]  -> index into dsp[] array (0-based)
		;  *   bits[2:0]  -> output port of that DSP
		;  *
		;  *   0x8000 = dsp[0] OUT[0] = DSP1 processed left signal
		;  *   0x8020 = dsp[2] OUT[0] = DSP3 processed right signal
		;  */
		; 
		; /*
		;  * Input routing  [dspIndex][inputPort]
		;  *
		;  * DSP1 IN[0] = DAAD0L  (left ADC)
		;  * DSP2 IN[0] = DSP1 OUT[0] (ch-A of left post-processor)
		;  * DSP2 IN[1] = DSP1 OUT[0] (ch-B of left post-processor, same source)
		;  * DSP3 IN[0] = DAAD0R  (right ADC)
		;  * DSP4 IN[0] = DSP3 OUT[0] (ch-A of right post-processor)
		;  * DSP4 IN[1] = DSP3 OUT[0] (ch-B of right post-processor, same source)
00002	830D 		LW	R3,BP
00003	2B04 		SBI	R3,4
00004	C0B9 		LX	R0,DP0+R3+9
00005	810B 		LW	R1,DP1H
00006	C5B6 		LX	R5,DP0+R3+6
00007	7E05 		XPUSH  R5
00008	C5BA 		LX	R5,DP0+R3+10
00009	7E05 		XPUSH  R5
0000A	C14C		XPUSHI 0
	0000 
0000C	C14C		XPUSHI 2
	0002 
0000E	7E00 		XPUSH	R0
0000F	7E01 		XPUSH	R1
00010	D7C8		XCALL _dichotomicSearch
	0000 RE
00012	830D 		LW	R3,BP
00013	2B04 		SBI	R3,4
00014	C8B3 		STX	R0,DP0+R3+3
		;  */
		; const WORD dspRouting_In[4][8] =
00015	8700 		LW	R7,R0
00016	D74B		ANI R7,-32768
	8000 
00018	B726 		JRZ	R7,L24
		; {
		;     /* DSP1 */ { DAAD0L, 0,      0, 0, 0, 0, 0, 0 },
00019	8700 		LW	R7,R0
0001A	D74B		ANI R7,32767
	7FFF 
0001C	CFB3 		STX	R7,DP0+R3+3
		;     /* DSP2 */ { 0x8000, 0x8000, 0, 0, 0, 0, 0, 0 },
0001D	C7BA 		LX	R7,DP0+R3+10
0001E	C6B3 		LX	R6,DP0+R3+3
0001F	8E07 		CMP R6,R7
00020	E303 		JNZ L20
		;     /* DSP3 */ { DAAD0R, 0,      0, 0, 0, 0, 0, 0 },
00021	2E01 		SBI	R6,1
00022	CEB3 		STX	R6,DP0+R3+3
00023	780D 		SJMP	L22
		
00024		L20
		;     /* DSP4 */ { 0x8020, 0x8020, 0, 0, 0, 0, 0, 0 }
00024	830D 		LW	R3,BP
00025	2B04 		SBI	R3,4
00026	C7B9 		LX	R7,DP0+R3+9
00027	C1B3 		LX	R1,DP0+R3+3
00028	F191 		SHL	R1,1
00029	9107 		ADD R1,R7
0002A	D790 		LX R7,DP1+R1
0002B	C6B6 		LX	R6,DP0+R3+6
0002C	8E07 		CMP R6,R7
0002D	E003 		JAE L22
		; };
0002E	C7B3 		LX	R7,DP0+R3+3
0002F	2F01 		SBI R7,1
00030	CFB3 		STX	R7,DP0+R3+3
		
00031		L22
		
		; 
00031	830D 		LW	R3,BP
00032	2B04 		SBI	R3,4
00033	C7B9 		LX	R7,DP0+R3+9
00034	C1B3 		LX	R1,DP0+R3+3
00035	F191 		SHL	R1,1
00036	9107 		ADD	R1,R7
00037	1101 		ADI R1,1
00038	D790 		LX R7,DP1+R1
00039	D74B		ANI R7,16384
	4000 
0003B	BF03 		JRNZ	R7,L24
		; /*
0003C	D748		LI R7,-1
	FFFF 
0003E	CFB3 		STX	R7,DP0+R3+3
		
0003F		L24
		;  * Output routing  [dspIndex][outputPort]
		
		;  *
		;  * DSP1 OUT[0] -> internal bus only (no direct DAC, feeds DSP2)
0003F	830D 		LW	R3,BP
00040	2B04 		SBI	R3,4
00041	C7B3 		LX	R7,DP0+R3+3
00042	D749		CPI R7,-1
	FFFF 
00044	E21A 		JZ L26
		;  * DSP2 OUT[0] -> DABD0L  (left output A)
		;  * DSP2 OUT[1] -> DABD0R  (left output B)
00045	C7B9 		LX	R7,DP0+R3+9
00046	C1B3 		LX	R1,DP0+R3+3
00047	F191 		SHL	R1,1
00048	9107 		ADD R1,R7
00049	D790 		LX R7,DP1+R1
0004A	C6B6 		LX	R6,DP0+R3+6
0004B	AE07 		SUB R6,R7
0004C	C1BE 		LX	R1,DP0+R3+14
0004D	CE90 		STX R6,DP0+R1
		;  * DSP3 OUT[0] -> internal bus only (no direct DAC, feeds DSP4)
0004E	C7B9 		LX	R7,DP0+R3+9
0004F	C1B3 		LX	R1,DP0+R3+3
00050	F191 		SHL	R1,1
00051	9107 		ADD	R1,R7
00052	1101 		ADI R1,1
00053	D790 		LX R7,DP1+R1
00054	C1BD 		LX	R1,DP0+R3+13
00055	CF90 		STX R7,DP0+R1
		;  * DSP4 OUT[2] -> DABD1L  (right output A)  -- dsp4.c routes biquad to PCS_DSP_OUT|2
00056	C7B8 		LX	R7,DP0+R3+8
00057	C1B7 		LX	R1,DP0+R3+7
00058	9107 		ADD R1,R7
00059	C790 		LX R7,DP0+R1
0005A	C1BF 		LX	R1,DP0+R3+15
0005B	CF90 		STX R7,DP0+R1
		;  * DSP4 OUT[3] -> DABD1R  (right output B)  -- dsp4.c routes biquad to PCS_DSP_OUT|3
0005C	0001 		LI R0,1
0005D	D0CE		LJMP L17
	00E8 R
		
0005F		L26
		;  */
		; const WORD dspRouting_Out[4][8] =
		; {
		;     /* DSP1 */ { -1,     -1,     -1,     -1, -1, -1, -1, -1 },
0005F	830D 		LW	R3,BP
00060	2B04 		SBI	R3,4
00061	C0BB 		LX	R0,DP0+R3+11
00062	810B 		LW	R1,DP1H
00063	C5B6 		LX	R5,DP0+R3+6
00064	7E05 		XPUSH  R5
00065	C5BC 		LX	R5,DP0+R3+12
00066	7E05 		XPUSH  R5
00067	C14C		XPUSHI 0
	0000 
00069	C14C		XPUSHI 3
	0003 
0006B	7E00 		XPUSH	R0
0006C	7E01 		XPUSH	R1
0006D	D7C8		XCALL _dichotomicSearch
	0000 RE
0006F	830D 		LW	R3,BP
00070	2B04 		SBI	R3,4
00071	C8B3 		STX	R0,DP0+R3+3
		;     /* DSP2 */ { DABD0L, DABD0R, -1,     -1, -1, -1, -1, -1 },
		;     /* DSP3 */ { -1,     -1,     -1,     -1, -1, -1, -1, -1 },
00072	8700 		LW	R7,R0
00073	D749		CPI R7,-1
	FFFF 
00075	E271 		JZ	L38
		;     /* DSP4 */ { -1,     -1, DABD1L, DABD1R, -1, -1, -1, -1 }
		; };
00076	D74B		ANI R7,-32768
	8000 
00078	B72E 		JRZ	R7,L36
		; 
		; WORD getBus( WORD bus )
00079	8700 		LW	R7,R0
0007A	D74B		ANI R7,32767
	7FFF 
0007C	CFB3 		STX	R7,DP0+R3+3
		; {
0007D	C7BC 		LX	R7,DP0+R3+12
0007E	C6B3 		LX	R6,DP0+R3+3
0007F	8E07 		CMP R6,R7
00080	E103 		JB L32
		;     if ( bus == (WORD)-1 ) return (WORD)-1;
00081	2E01 		SBI	R6,1
00082	CEB3 		STX	R6,DP0+R3+3
00083	7811 		SJMP	L34
		
00084		L32
		;     if ( bus & (1<<15) )
00084	830D 		LW	R3,BP
00085	2B04 		SBI	R3,4
00086	C7BB 		LX	R7,DP0+R3+11
00087	CFB2 		STX	R7,DP0+R3+2
00088	C6B3 		LX	R6,DP0+R3+3
00089	0703 		LI R7,3
0008A	D4CE 		UMUL R6
0008B	C6B2 		LX	R6,DP0+R3+2
0008C	8107 		LW R1,R7
0008D	9106 		ADD R1,R6
0008E	D790 		LX R7,DP1+R1
0008F	C6B6 		LX	R6,DP0+R3+6
00090	8E07 		CMP R6,R7
00091	E003 		JAE L34
		;         return OutBusOf( dsp[(bus>>4)&0xF], bus&0x7 );
00092	C7B3 		LX	R7,DP0+R3+3
00093	2F01 		SBI R7,1
00094	CFB3 		STX	R7,DP0+R3+3
		
00095		L34
		
		;     else
00095	830D 		LW	R3,BP
00096	2B04 		SBI	R3,4
00097	C7BB 		LX	R7,DP0+R3+11
00098	CFB1 		STX	R7,DP0+R3+1
00099	C6B3 		LX	R6,DP0+R3+3
0009A	0703 		LI R7,3
0009B	D4CE 		UMUL R6
0009C	C6B1 		LX	R6,DP0+R3+1
0009D	9706 		ADD R7,R6
0009E	8107 		LW R1,R7
0009F	1101 		ADI R1,1
000A0	D790 		LX R7,DP1+R1
000A1	D74B		ANI R7,16384
	4000 
000A3	BF03 		JRNZ	R7,L36
		;         return bus;
000A4	D748		LI R7,-1
	FFFF 
000A6	CFB3 		STX	R7,DP0+R3+3
		
000A7		L36
		; }
		
		; 
		; void dspDesigner_InitAndRoute (void)
000A7	830D 		LW	R3,BP
000A8	2B04 		SBI	R3,4
000A9	C7B3 		LX	R7,DP0+R3+3
000AA	D749		CPI R7,-1
	FFFF 
000AC	E23A 		JZ	L38
		; {
		;     WORD rout[8], i, j;
000AD	C7BB 		LX	R7,DP0+R3+11
000AE	CFB2 		STX	R7,DP0+R3+2
000AF	C6B3 		LX	R6,DP0+R3+3
000B0	0703 		LI R7,3
000B1	D4CE 		UMUL R6
000B2	C6B2 		LX	R6,DP0+R3+2
000B3	8107 		LW R1,R7
000B4	9106 		ADD R1,R6
000B5	D790 		LX R7,DP1+R1
000B6	C6B6 		LX	R6,DP0+R3+6
000B7	AE07 		SUB R6,R7
000B8	C1BE 		LX	R1,DP0+R3+14
000B9	CE90 		STX R6,DP0+R1
		;     WORD dspIndex[4] = { 0, 1, 2, 3 };
000BA	C7BB 		LX	R7,DP0+R3+11
000BB	CFB1 		STX	R7,DP0+R3+1
000BC	C6B3 		LX	R6,DP0+R3+3
000BD	0703 		LI R7,3
000BE	D4CE 		UMUL R6
000BF	C6B1 		LX	R6,DP0+R3+1
000C0	9706 		ADD R7,R6
000C1	8107 		LW R1,R7
000C2	1101 		ADI R1,1
000C3	D790 		LX R7,DP1+R1
000C4	C1BD 		LX	R1,DP0+R3+13
000C5	CF90 		STX R7,DP0+R1
		; 
000C6	C7B8 		LX	R7,DP0+R3+8
000C7	C1B7 		LX	R1,DP0+R3+7
000C8	9107 		ADD R1,R7
000C9	C790 		LX R7,DP0+R1
000CA	C1BF 		LX	R1,DP0+R3+15
000CB	CF90 		STX R7,DP0+R1
		;     dsp[0] = dsp1InitAndRoute();
000CC	C7BB 		LX	R7,DP0+R3+11
000CD	CFB0 		STX	R7,DP0+R3
000CE	C6B3 		LX	R6,DP0+R3+3
000CF	0703 		LI R7,3
000D0	D4CE 		UMUL R6
000D1	C6B0 		LX	R6,DP0+R3
000D2	9706 		ADD R7,R6
000D3	8107 		LW R1,R7
000D4	1102 		ADI R1,2
000D5	D790 		LX R7,DP1+R1
000D6	1310 		ADI	R3,16
000D7	C1B0 		LX	R1,DP0+R3
000D8	CF90 		STX R7,DP0+R1
		;     dsp[1] = dsp2InitAndRoute();
000D9	FBD0		DLA	DR3,__MixPA_Biquad_UpdateCoeff
	0000 RE
000DB	C5B1 		LX	R5,DP0+R3+1
000DC	8105 		LW R1,R5
000DD	1102 		ADI R1,2
000DE	CE91 		STX R6,DP0+R1+1
000DF	CF90 		STX R7,DP0+R1
		;     dsp[2] = dsp3InitAndRoute();
000E0	FBD0		DLA	DR3,__MixPA_Biquad_Flat
	0000 RE
000E2	C1B1 		LX	R1,DP0+R3+1
000E3	CE91 		STX R6,DP0+R1+1
000E4	CF90 		STX R7,DP0+R1
		;     dsp[3] = dsp4InitAndRoute();
000E5	0001 		LI R0,1
000E6	7801 		SJMP L17
		
000E7		L38
		; 
		;     /* Apply routing and start each DSP */
		
		;     for (i = 0; i < 4; i++)
		;     {
000E7	0000 		LI R0,0
		
000E8		L17
000E8	D5CF		XRET 12
	000C 
			PUBLIC _shared_NrpnDispatch_DelayBiquad
		;         dvalue -> BP-11
		; updateCoeffFunc -> BP-9
		;        val8bit -> BP-5
		;      theBiquad -> BP-4
		;          index -> BP-3
		; resolvedProcess -> BP-2
		;     functionId -> BP-1
		; biquadTableLen -> BP+12
		;    biquadTable -> BP+11
		;    nrpnListLen -> BP+10
		;       nrpnList -> BP+9
		;            pcs -> BP+8
		;         format -> BP+7
		;          value -> BP+5
		;      processId -> BP+4
		;          dspId -> BP+3
		;           nrpn -> BP+2
000EA		_shared_NrpnDispatch_DelayBiquad
000EA	C04C		SXSP  13
	000D 
		;         for (j = 0; j < 8; j++)
		;             rout[j] = getBus( dspRouting_In[i][j] );
		;         _DSProutInEx( dsp[dspIndex[i]], rout );
		; 
		;         for (j = 0; j < 8; j++)
		;             rout[j] = getBus( dspRouting_Out[i][j] );
		;         _DSProutEx( dsp[dspIndex[i]], rout );
		; 
		;         _StartDSP( dsp[dspIndex[i]] );
		;     }
		; }
		; }
		; }
		; }
		; }
		; }
		; }
		; }
		; }
000EC	0700 		LI R7,0
000ED	830D 		LW	R3,BP
000EE	2B05 		SBI	R3,5
000EF	CFB4 		STX	R7,DP0+R3+4
000F0	CFB2 		STX	R7,DP0+R3+2
000F1	CFB3 		STX	R7,DP0+R3+3
		; }
		; }
000F2	CFB1 		STX	R7,DP0+R3+1
		; }
		; }
		; }
000F3	0708 		LI R7,8
000F4	FAE2		DLXS	DR2,BP+5
	0005 
000F6	FAF7 		SWAP	DR2
000F7	F20F 		DSHR	DR2,R7
			 
			 
000F8	CCB0 		STX	R4,DP0+R3
		; }
000F9	C7BC 		LX	R7,DP0+R3+12
000FA	BF0A 		JRNZ	R7,L42
000FB	070D 		LI R7,13
000FC	FAE2		DLXS	DR2,BP+5
	0005 
000FE	FAF7 		SWAP	DR2
000FF	F22F 		DSHL	DR2,R7
			 
			 
00100	D3CC		STXS R4,BP-12
	FFF4 
00102	D3CD		STXS R5,BP-13
	FFF3 
00104	7807 		SJMP L43
		
00105		L42
00105	FBE2		DLXS	DR3,BP+5
	0005 
00107	FBF7 		SWAP	DR3
00108	D3CE		STXS R6,BP-12
	FFF4 
0010A	D3CF		STXS R7,BP-13
	FFF3 
		
0010C		L43
0010C	FBE2		DLXS	DR3,BP-13
	FFF3 
0010E	FBF7 		SWAP	DR3
0010F	D3CE		STXS R6,BP-10
	FFF6 
00111	D3CF		STXS R7,BP-11
	FFF5 
		; }
		; }
00113	870D 		LW R7,BP
00114	2F09 		SBI	R7,9
00115	7E07 		XPUSH	R7
00116	870D 		LW R7,BP
00117	2F04 		SBI	R7,4
00118	7E07 		XPUSH	R7
00119	870D 		LW R7,BP
0011A	2F02 		SBI	R7,2
0011B	7E07 		XPUSH	R7
0011C	870D 		LW R7,BP
0011D	2F03 		SBI	R7,3
0011E	7E07 		XPUSH	R7
0011F	870D 		LW R7,BP
00120	2F01 		SBI	R7,1
00121	7E07 		XPUSH	R7
00122	830D 		LW	R3,BP
00123	1302 		ADI	R3,2
00124	C7BA 		LX	R7,DP0+R3+10
00125	7E07 		XPUSH  R7
00126	C7B9 		LX	R7,DP0+R3+9
00127	7E07 		XPUSH  R7
00128	C7B8 		LX	R7,DP0+R3+8
00129	7E07 		XPUSH  R7
0012A	C7B7 		LX	R7,DP0+R3+7
0012B	7E07 		XPUSH  R7
0012C	C7B6 		LX	R7,DP0+R3+6
0012D	7E07 		XPUSH  R7
0012E	C7B2 		LX	R7,DP0+R3+2
0012F	7E07 		XPUSH  R7
00130	C7B0 		LX	R7,DP0+R3
00131	7E07 		XPUSH  R7
00132	D7C8		XCALL _resolveNrpn
	0000 R
00134	B803 		JRNZ	R0,L44
		; }
		; }
		; }
		; }
		; }
00135	0000 		LI R0,0
00136	D0CE		LJMP L40
	01F6 R
		
00138		L44
		; }
		; }
00138	D2CF		LXS R7,BP-1
	FFFF 
0013A	0F1F 		CPI R7,31
0013B	E223 		JZ	L48
0013C	0F20 		CPI R7,32
0013D	E22B 		JZ	L49
0013E	0F21 		CPI R7,33
0013F	E235 		JZ	L50
00140	0F22 		CPI R7,34
00141	E23D 		JZ	L51
00142	0422 		LI R4,34
00143	8507 		LW	R5,R7
00144	8C05 		CMP	R4,R5
00145	FCE7		JBS	L60
	0007 
			 
			 
			 
			 
		
00147	B740 		JRZ	R7,L52
00148	0F01 		CPI R7,1
00149	E247 		JZ	L53
0014A	0F02 		CPI R7,2
0014B	E24E 		JZ	L54
0014C	D0CE		LJMP L47
	01F5 R
		
0014E		L60
0014E	D2CF		LXS R7,BP-1
	FFFF 
00150	D749		CPI R7,16387
	4003 
00152	E251 		JZ	L55
00153	D749		CPI R7,16388
	4004 
00155	E261 		JZ	L56
00156	D749		CPI R7,16389
	4005 
00158	E272 		JZ	L57
00159	D749		CPI R7,16390
	4006 
0015B	FFE7		JE	L58
	0084 
0015D	D0CE		LJMP L47
	01F5 R
		
		; }
		
0015F		L48
		; }
		; }
0015F	830D 		LW	R3,BP
00160	2B05 		SBI	R3,5
00161	C0B0 		LX	R0,DP0+R3
00162	C1B3 		LX	R1,DP0+R3+3
00163	C4B8 		LX	R4,DP0+R3+8
00164	D6C8		LCALL	__MixPA_Delay_OnOff$R4R1R0$
	0000 RE
00166	0001 		LI R0,1
00167	D0CE		LJMP L40
	01F6 R
		
00169		L49
		; }
00169	FBE2		DLXS	DR3,BP-11
	FFF5 
0016B	FBF7 		SWAP	DR3
0016C	830D 		LW	R3,BP
0016D	2B05 		SBI	R3,5
0016E	C1B3 		LX	R1,DP0+R3+3
0016F	C4B8 		LX	R4,DP0+R3+8
00170	D6C8		LCALL	__MixPA_Delay_SetTime$R4R1R7R6$
	0000 RE
00172	0001 		LI R0,1
00173	D0CE		LJMP L40
	01F6 R
		
00175		L50
		; }
00175	D2CF		LXS	R7,BP+6
	0006 
00177	830D 		LW	R3,BP
00178	2B05 		SBI	R3,5
00179	C1B3 		LX	R1,DP0+R3+3
0017A	C4B8 		LX	R4,DP0+R3+8
0017B	D6C8		LCALL	__MixPA_Delay_OutGainValue$R4R1R7$
	0000 RE
0017D	0001 		LI R0,1
0017E	7877 		SJMP	L40
		
0017F		L51
		; }
0017F	830D 		LW	R3,BP
00180	2B05 		SBI	R3,5
00181	C0B0 		LX	R0,DP0+R3
00182	C1B3 		LX	R1,DP0+R3+3
00183	C4B8 		LX	R4,DP0+R3+8
00184	D6C8		LCALL	__MixPA_Delay_OutGainPhase$R4R1R0$
	0000 RE
00186	0001 		LI R0,1
00187	786E 		SJMP	L40
		
00188		L52
		; }
		; }
00188	830D 		LW	R3,BP
00189	2B05 		SBI	R3,5
0018A	C0B0 		LX	R0,DP0+R3
0018B	C1B3 		LX	R1,DP0+R3+3
0018C	C4B8 		LX	R4,DP0+R3+8
0018D	D6C8		LCALL	__MixPA_Biquad_OnOff$R4R1R0$
	0000 RE
0018F	0001 		LI R0,1
00190	7865 		SJMP	L40
		
00191		L53
		; }
00191	830D 		LW	R3,BP
00192	2B05 		SBI	R3,5
00193	C0B0 		LX	R0,DP0+R3
00194	C1B3 		LX	R1,DP0+R3+3
00195	C4B8 		LX	R4,DP0+R3+8
00196	D6C8		LCALL	__MixPA_Biquad_InGainPhase$R4R1R0$
	0000 RE
00198	0001 		LI R0,1
00199	785C 		SJMP	L40
		
0019A		L54
		; }
0019A	D2CF		LXS	R7,BP+6
	0006 
0019C	830D 		LW	R3,BP
0019D	2B05 		SBI	R3,5
0019E	C1B3 		LX	R1,DP0+R3+3
0019F	C4B8 		LX	R4,DP0+R3+8
001A0	D6C8		LCALL	__MixPA_Biquad_InGainValue$R4R1R7$
	0000 RE
001A2	0001 		LI R0,1
001A3	7852 		SJMP	L40
		
001A4		L55
		; }
001A4	830D 		LW	R3,BP
001A5	2B05 		SBI	R3,5
001A6	C7B0 		LX	R7,DP0+R3
001A7	7E07 		XPUSH  R7
001A8	C7B2 		LX	R7,DP0+R3+2
001A9	7E07 		XPUSH  R7
001AA	C7B3 		LX	R7,DP0+R3+3
001AB	7E07 		XPUSH  R7
001AC	C7B8 		LX	R7,DP0+R3+8
001AD	7E07 		XPUSH  R7
001AE	C7B1 		LX	R7,DP0+R3+1
001AF	7E07 		XPUSH  R7
001B0	870D 		LW R7,BP
001B1	2F09 		SBI	R7,9
001B2	7E07 		XPUSH	R7
001B3	D7C8		XCALL  _SetFilterType
	0000 RE
001B5	0001 		LI R0,1
001B6	783F 		SJMP	L40
		
001B7		L56
		; }
001B7	D2CE		LXS R6,BP+6
	0006 
001B9	7E06 		XPUSH	R6
001BA	830D 		LW	R3,BP
001BB	2B05 		SBI	R3,5
001BC	C7B2 		LX	R7,DP0+R3+2
001BD	7E07 		XPUSH  R7
001BE	C7B3 		LX	R7,DP0+R3+3
001BF	7E07 		XPUSH  R7
001C0	C7B8 		LX	R7,DP0+R3+8
001C1	7E07 		XPUSH  R7
001C2	C7B1 		LX	R7,DP0+R3+1
001C3	7E07 		XPUSH  R7
001C4	870D 		LW R7,BP
001C5	2F09 		SBI	R7,9
001C6	7E07 		XPUSH	R7
001C7	D7C8		XCALL  _SetFilterQ
	0000 RE
001C9	0001 		LI R0,1
001CA	782B 		SJMP L40
		
001CB		L57
		; }
001CB	FBE2		DLXS	DR3,BP-11
	FFF5 
001CD	FBF7 		SWAP	DR3
001CE	7E06 		XPUSH  R6
001CF	7E07 		XPUSH	R7
001D0	830D 		LW	R3,BP
001D1	2B05 		SBI	R3,5
001D2	C7B2 		LX	R7,DP0+R3+2
001D3	7E07 		XPUSH  R7
001D4	C7B3 		LX	R7,DP0+R3+3
001D5	7E07 		XPUSH  R7
001D6	C7B8 		LX	R7,DP0+R3+8
001D7	7E07 		XPUSH  R7
001D8	C7B1 		LX	R7,DP0+R3+1
001D9	7E07 		XPUSH  R7
001DA	870D 		LW R7,BP
001DB	2F09 		SBI	R7,9
001DC	7E07 		XPUSH	R7
001DD	D7C8		XCALL  _SetFilterFreq
	0000 RE
001DF	0001 		LI R0,1
001E0	7815 		SJMP L40
		
001E1		L58
		; }
001E1	D2CE		LXS R6,BP+6
	0006 
001E3	7E06 		XPUSH	R6
001E4	830D 		LW	R3,BP
001E5	2B05 		SBI	R3,5
001E6	C7B2 		LX	R7,DP0+R3+2
001E7	7E07 		XPUSH  R7
001E8	C7B3 		LX	R7,DP0+R3+3
001E9	7E07 		XPUSH  R7
001EA	C7B8 		LX	R7,DP0+R3+8
001EB	7E07 		XPUSH  R7
001EC	C7B1 		LX	R7,DP0+R3+1
001ED	7E07 		XPUSH  R7
001EE	870D 		LW R7,BP
001EF	2F09 		SBI	R7,9
001F0	7E07 		XPUSH	R7
001F1	D7C8		XCALL  _SetFilterGain
	0000 RE
001F3	0001 		LI R0,1
001F4	7801 		SJMP L40
		
		; }
		
001F5		L47
		; }
		; }
001F5	0000 		LI R0,0
		
001F6		L40
001F6	D5CF		XRET 11
	000B 
			PUBLIC _shared_NrpnDispatch_GainBiquadComp
		;         dvalue -> BP-11
		; updateCoeffFunc -> BP-9
		;        val8bit -> BP-5
		;      theBiquad -> BP-4
		;          index -> BP-3
		; resolvedProcess -> BP-2
		;     functionId -> BP-1
		; biquadTableLen -> BP+12
		;    biquadTable -> BP+11
		;    nrpnListLen -> BP+10
		;       nrpnList -> BP+9
		;            pcs -> BP+8
		;         format -> BP+7
		;          value -> BP+5
		;      processId -> BP+4
		;          dspId -> BP+3
		;           nrpn -> BP+2
001F8		_shared_NrpnDispatch_GainBiquadComp
001F8	C04C		SXSP  13
	000D 
		; 
		; 
		; 
		; 
		; 
		; 
		; 
		; 
		; 
		; 
		; 
		; 
		; 
		; 
		; 
		; 
		; 
		; 
		; 
001FA	0700 		LI R7,0
001FB	830D 		LW	R3,BP
001FC	2B05 		SBI	R3,5
001FD	CFB4 		STX	R7,DP0+R3+4
001FE	CFB2 		STX	R7,DP0+R3+2
001FF	CFB3 		STX	R7,DP0+R3+3
		; 
		; 
00200	CFB1 		STX	R7,DP0+R3+1
		; 
		; 
		; 
00201	0708 		LI R7,8
00202	FAE2		DLXS	DR2,BP+5
	0005 
00204	FAF7 		SWAP	DR2
00205	F20F 		DSHR	DR2,R7
			 
			 
00206	CCB0 		STX	R4,DP0+R3
		; 
00207	C7BC 		LX	R7,DP0+R3+12
00208	BF0A 		JRNZ	R7,L63
00209	070D 		LI R7,13
0020A	FAE2		DLXS	DR2,BP+5
	0005 
0020C	FAF7 		SWAP	DR2
0020D	F22F 		DSHL	DR2,R7
			 
			 
0020E	D3CC		STXS R4,BP-12
	FFF4 
00210	D3CD		STXS R5,BP-13
	FFF3 
00212	7807 		SJMP L64
		
00213		L63
00213	FBE2		DLXS	DR3,BP+5
	0005 
00215	FBF7 		SWAP	DR3
00216	D3CE		STXS R6,BP-12
	FFF4 
00218	D3CF		STXS R7,BP-13
	FFF3 
		
0021A		L64
0021A	FBE2		DLXS	DR3,BP-13
	FFF3 
0021C	FBF7 		SWAP	DR3
0021D	D3CE		STXS R6,BP-10
	FFF6 
0021F	D3CF		STXS R7,BP-11
	FFF5 
		; 
		; 
00221	870D 		LW R7,BP
00222	2F09 		SBI	R7,9
00223	7E07 		XPUSH	R7
00224	870D 		LW R7,BP
00225	2F04 		SBI	R7,4
00226	7E07 		XPUSH	R7
00227	870D 		LW R7,BP
00228	2F02 		SBI	R7,2
00229	7E07 		XPUSH	R7
0022A	870D 		LW R7,BP
0022B	2F03 		SBI	R7,3
0022C	7E07 		XPUSH	R7
0022D	870D 		LW R7,BP
0022E	2F01 		SBI	R7,1
0022F	7E07 		XPUSH	R7
00230	830D 		LW	R3,BP
00231	1302 		ADI	R3,2
00232	C7BA 		LX	R7,DP0+R3+10
00233	7E07 		XPUSH  R7
00234	C7B9 		LX	R7,DP0+R3+9
00235	7E07 		XPUSH  R7
00236	C7B8 		LX	R7,DP0+R3+8
00237	7E07 		XPUSH  R7
00238	C7B7 		LX	R7,DP0+R3+7
00239	7E07 		XPUSH  R7
0023A	C7B6 		LX	R7,DP0+R3+6
0023B	7E07 		XPUSH  R7
0023C	C7B2 		LX	R7,DP0+R3+2
0023D	7E07 		XPUSH  R7
0023E	C7B0 		LX	R7,DP0+R3
0023F	7E07 		XPUSH  R7
00240	D7C8		XCALL _resolveNrpn
	0000 R
00242	B803 		JRNZ	R0,L65
		; 
		; 
		; 
		; 
		; 
00243	0000 		LI R0,0
00244	D0CE		LJMP L61
	035C R
		
00246		L65
		; 
		; 
00246	D2CF		LXS R7,BP-1
	FFFF 
00248	0F19 		CPI R7,25
00249	FFE7		JE	L80
	00D2 
0024B	0F1A 		CPI R7,26
0024C	FFE7		JE	L81
	00DD 
0024E	0F1B 		CPI R7,27
0024F	FFE7		JE	L82
	00E3 
00251	0F1C 		CPI R7,28
00252	FFE7		JE	L83
	00EA 
00254	0F1D 		CPI R7,29
00255	FFE7		JE	L84
	00F1 
00257	0F1E 		CPI R7,30
00258	FFE7		JE	L85
	00F8 
0025A	041E 		LI R4,30
0025B	8507 		LW	R5,R7
0025C	8C05 		CMP R4,R5
0025D	E107 		JB L87
		
0025E	B739 		JRZ	R7,L71
0025F	0F01 		CPI R7,1
00260	E241 		JZ	L72
00261	0F02 		CPI R7,2
00262	E249 		JZ	L73
00263	D0CE		LJMP L68
	035B R
		
00265		L87
00265	D2CF		LXS R7,BP-1
	FFFF 
00267	0F2F 		CPI R7,47
00268	E21A 		JZ L69
00269	0F30 		CPI R7,48
0026A	E223 		JZ	L70
0026B	0F33 		CPI R7,51
0026C	FFE7		JE	L78
	009B 
0026E	0F34 		CPI R7,52
0026F	FFE7		JE	L79
	00A2 
00271	8507 		LW	R5,R7
00272	0D2F 		CPI	R5,47
00273	FCE7		JBS	L68
	00E6 
			 
			 
			 
			 
		
00275	D749		CPI R7,16387
	4003 
00277	E23F 		JZ	L74
00278	D749		CPI R7,16388
	4004 
0027A	E250 		JZ	L75
0027B	D749		CPI R7,16389
	4005 
0027D	E261 		JZ	L76
0027E	D749		CPI R7,16390
	4006 
00280	E274 		JZ	L77
00281	D0CE		LJMP L68
	035B R
		
		; 
		
00283		L69
		; 
		; 
00283	D2CF		LXS	R7,BP+6
	0006 
00285	830D 		LW	R3,BP
00286	2B05 		SBI	R3,5
00287	C1B3 		LX	R1,DP0+R3+3
00288	C4B8 		LX	R4,DP0+R3+8
00289	D6C8		LCALL	__MixPA_Gain_Value$R4R1R7$
	0000 RE
0028B	0001 		LI R0,1
0028C	D0CE		LJMP L61
	035C R
		
0028E		L70
		; 
0028E	830D 		LW	R3,BP
0028F	2B05 		SBI	R3,5
00290	C0B0 		LX	R0,DP0+R3
00291	C1B3 		LX	R1,DP0+R3+3
00292	C4B8 		LX	R4,DP0+R3+8
00293	D6C8		LCALL	__MixPA_Gain_Phase$R4R1R0$
	0000 RE
00295	0001 		LI R0,1
00296	D0CE		LJMP L61
	035C R
		
00298		L71
		; 
		; 
00298	830D 		LW	R3,BP
00299	2B05 		SBI	R3,5
0029A	C0B0 		LX	R0,DP0+R3
0029B	C1B3 		LX	R1,DP0+R3+3
0029C	C4B8 		LX	R4,DP0+R3+8
0029D	D6C8		LCALL	__MixPA_Biquad_OnOff$R4R1R0$
	0000 RE
0029F	0001 		LI R0,1
002A0	D0CE		LJMP L61
	035C R
		
002A2		L72
		; 
002A2	830D 		LW	R3,BP
002A3	2B05 		SBI	R3,5
002A4	C0B0 		LX	R0,DP0+R3
002A5	C1B3 		LX	R1,DP0+R3+3
002A6	C4B8 		LX	R4,DP0+R3+8
002A7	D6C8		LCALL	__MixPA_Biquad_InGainPhase$R4R1R0$
	0000 RE
002A9	0001 		LI R0,1
002AA	D0CE		LJMP L61
	035C R
		
002AC		L73
		; 
002AC	D2CF		LXS	R7,BP+6
	0006 
002AE	830D 		LW	R3,BP
002AF	2B05 		SBI	R3,5
002B0	C1B3 		LX	R1,DP0+R3+3
002B1	C4B8 		LX	R4,DP0+R3+8
002B2	D6C8		LCALL	__MixPA_Biquad_InGainValue$R4R1R7$
	0000 RE
002B4	0001 		LI R0,1
002B5	D0CE		LJMP L61
	035C R
		
002B7		L74
		; 
002B7	830D 		LW	R3,BP
002B8	2B05 		SBI	R3,5
002B9	C7B0 		LX	R7,DP0+R3
002BA	7E07 		XPUSH  R7
002BB	C7B2 		LX	R7,DP0+R3+2
002BC	7E07 		XPUSH  R7
002BD	C7B3 		LX	R7,DP0+R3+3
002BE	7E07 		XPUSH  R7
002BF	C7B8 		LX	R7,DP0+R3+8
002C0	7E07 		XPUSH  R7
002C1	C7B1 		LX	R7,DP0+R3+1
002C2	7E07 		XPUSH  R7
002C3	870D 		LW R7,BP
002C4	2F09 		SBI	R7,9
002C5	7E07 		XPUSH	R7
002C6	D7C8		XCALL  _SetFilterType
	0000 RE
002C8	0001 		LI R0,1
002C9	D0CE		LJMP L61
	035C R
		
002CB		L75
		; 
002CB	D2CE		LXS R6,BP+6
	0006 
002CD	7E06 		XPUSH	R6
002CE	830D 		LW	R3,BP
002CF	2B05 		SBI	R3,5
002D0	C7B2 		LX	R7,DP0+R3+2
002D1	7E07 		XPUSH  R7
002D2	C7B3 		LX	R7,DP0+R3+3
002D3	7E07 		XPUSH  R7
002D4	C7B8 		LX	R7,DP0+R3+8
002D5	7E07 		XPUSH  R7
002D6	C7B1 		LX	R7,DP0+R3+1
002D7	7E07 		XPUSH  R7
002D8	870D 		LW R7,BP
002D9	2F09 		SBI	R7,9
002DA	7E07 		XPUSH	R7
002DB	D7C8		XCALL  _SetFilterQ
	0000 RE
002DD	0001 		LI R0,1
002DE	787D 		SJMP	L61
		
002DF		L76
		; 
002DF	FBE2		DLXS	DR3,BP-11
	FFF5 
002E1	FBF7 		SWAP	DR3
002E2	7E06 		XPUSH  R6
002E3	7E07 		XPUSH	R7
002E4	830D 		LW	R3,BP
002E5	2B05 		SBI	R3,5
002E6	C7B2 		LX	R7,DP0+R3+2
002E7	7E07 		XPUSH  R7
002E8	C7B3 		LX	R7,DP0+R3+3
002E9	7E07 		XPUSH  R7
002EA	C7B8 		LX	R7,DP0+R3+8
002EB	7E07 		XPUSH  R7
002EC	C7B1 		LX	R7,DP0+R3+1
002ED	7E07 		XPUSH  R7
002EE	870D 		LW R7,BP
002EF	2F09 		SBI	R7,9
002F0	7E07 		XPUSH	R7
002F1	D7C8		XCALL  _SetFilterFreq
	0000 RE
002F3	0001 		LI R0,1
002F4	7867 		SJMP	L61
		
002F5		L77
		; 
002F5	D2CE		LXS R6,BP+6
	0006 
002F7	7E06 		XPUSH	R6
002F8	830D 		LW	R3,BP
002F9	2B05 		SBI	R3,5
002FA	C7B2 		LX	R7,DP0+R3+2
002FB	7E07 		XPUSH  R7
002FC	C7B3 		LX	R7,DP0+R3+3
002FD	7E07 		XPUSH  R7
002FE	C7B8 		LX	R7,DP0+R3+8
002FF	7E07 		XPUSH  R7
00300	C7B1 		LX	R7,DP0+R3+1
00301	7E07 		XPUSH  R7
00302	870D 		LW R7,BP
00303	2F09 		SBI	R7,9
00304	7E07 		XPUSH	R7
00305	D7C8		XCALL  _SetFilterGain
	0000 RE
00307	0001 		LI R0,1
00308	7853 		SJMP	L61
		
00309		L78
		; 
		; 
00309	D2CF		LXS	R7,BP+6
	0006 
0030B	830D 		LW	R3,BP
0030C	2B05 		SBI	R3,5
0030D	C1B3 		LX	R1,DP0+R3+3
0030E	C4B8 		LX	R4,DP0+R3+8
0030F	D6C8		LCALL	__MixPA_LevelDetect_Attack$R4R1R7$
	0000 RE
00311	0001 		LI R0,1
00312	7849 		SJMP	L61
		
00313		L79
		; 
00313	D2CF		LXS	R7,BP+6
	0006 
00315	830D 		LW	R3,BP
00316	2B05 		SBI	R3,5
00317	C1B3 		LX	R1,DP0+R3+3
00318	C4B8 		LX	R4,DP0+R3+8
00319	D6C8		LCALL	__MixPA_LevelDetect_Release$R4R1R7$
	0000 RE
0031B	0001 		LI R0,1
0031C	783F 		SJMP	L61
		
0031D		L80
		; 
		; 
0031D	830D 		LW	R3,BP
0031E	2B05 		SBI	R3,5
0031F	C1B3 		LX	R1,DP0+R3+3
00320	C4B8 		LX	R4,DP0+R3+8
00321	D6C8		LCALL	__MixPA_Compressor_GetGainReduction$R4R1$
	0000 RE
00323	7E00 		XPUSH  R0
00324	D2CE		LXS R6,BP+6
	0006 
00326	7E06 		XPUSH	R6
00327	D7C8		XCALL  _sendSysExMessage
	0000 RE
00329	0001 		LI R0,1
0032A	7831 		SJMP	L61
		
0032B		L81
		; 
0032B	830D 		LW	R3,BP
0032C	2B05 		SBI	R3,5
0032D	C0B0 		LX	R0,DP0+R3
0032E	C1B3 		LX	R1,DP0+R3+3
0032F	C4B8 		LX	R4,DP0+R3+8
00330	D6C8		LCALL	__MixPA_Compressor_OnOff$R4R1R0$
	0000 RE
00332	0001 		LI R0,1
00333	7828 		SJMP	L61
		
00334		L82
		; 
00334	D2C8		LXS	R0,BP+6
	0006 
00336	830D 		LW	R3,BP
00337	2B05 		SBI	R3,5
00338	C1B3 		LX	R1,DP0+R3+3
00339	C4B8 		LX	R4,DP0+R3+8
0033A	D6C8		LCALL	__MixPA_Compressor_Threshold$R4R1R0$
	0000 RE
0033C	0001 		LI R0,1
0033D	781E 		SJMP L61
		
0033E		L83
		; 
0033E	D2CF		LXS	R7,BP+6
	0006 
00340	830D 		LW	R3,BP
00341	2B05 		SBI	R3,5
00342	C1B3 		LX	R1,DP0+R3+3
00343	C4B8 		LX	R4,DP0+R3+8
00344	D6C8		LCALL	__MixPA_Compressor_Ratio$R4R1R7$
	0000 RE
00346	0001 		LI R0,1
00347	7814 		SJMP L61
		
00348		L84
		; 
00348	D2CF		LXS	R7,BP+6
	0006 
0034A	830D 		LW	R3,BP
0034B	2B05 		SBI	R3,5
0034C	C1B3 		LX	R1,DP0+R3+3
0034D	C4B8 		LX	R4,DP0+R3+8
0034E	D6C8		LCALL	__MixPA_Compressor_Boost$R4R1R7$
	0000 RE
00350	0001 		LI R0,1
00351	780A 		SJMP L61
		
00352		L85
		; 
00352	830D 		LW	R3,BP
00353	2B05 		SBI	R3,5
00354	C0B0 		LX	R0,DP0+R3
00355	C1B3 		LX	R1,DP0+R3+3
00356	C4B8 		LX	R4,DP0+R3+8
00357	D6C8		LCALL	__MixPA_Compressor_BoostPhase$R4R1R0$
	0000 RE
00359	0001 		LI R0,1
0035A	7801 		SJMP L61
		
		; 
		
0035B		L68
		; 
		; 
0035B	0000 		LI R0,0
		
0035C		L61
0035C	D5CF		XRET 11
	000B 
			PUBLIC _OutBusOf
		;            out -> BP+3
		;          DSPid -> BP+2
0035E		_OutBusOf
0035E	830D 		LW	R3,BP
0035F	C7B3 		LX	R7,DP0+R3+3
00360	C0B2 		LX	R0,DP0+R3+2
00361	2830 		SBI	R0,48
00362	F093 		SHL	R0,3
00363	1080 		ADI	R0,128
00364	9007 		ADD R0,R7
		
00365	D5CA 		XRET 2
00366	----
00366			.area text(ROM,REL,CON)
			PUBLIC _dspRouting_In
00366	----
00000			.area const(ROM,REL,CON)
00000	0070 	_dspRouting_In	DW	112
00001	0000 		DW	0
00002	0000 		DW	0
00003	0000 		DW	0
00004	0000 		DW	0
00005	0000 		DW	0
00006	0000 		DW	0
00007	0000 		DW	0
00008	8000 		DW	32768
00009	8000 		DW	32768
0000A	0000 		DW	0
0000B	0000 		DW	0
0000C	0000 		DW	0
0000D	0000 		DW	0
0000E	0000 		DW	0
0000F	0000 		DW	0
00010	0071 		DW	113
00011	0000 		DW	0
00012	0000 		DW	0
00013	0000 		DW	0
00014	0000 		DW	0
00015	0000 		DW	0
00016	0000 		DW	0
00017	0000 		DW	0
00018	8020 		DW	32800
00019	8020 		DW	32800
0001A	0000 		DW	0
0001B	0000 		DW	0
0001C	0000 		DW	0
0001D	0000 		DW	0
0001E	0000 		DW	0
0001F	0000 		DW	0
			PUBLIC _dspRouting_Out
00020	FFFF 	_dspRouting_Out	DW	65535
00021	FFFF 		DW	65535
00022	FFFF 		DW	65535
00023	FFFF 		DW	65535
00024	FFFF 		DW	65535
00025	FFFF 		DW	65535
00026	FFFF 		DW	65535
00027	FFFF 		DW	65535
00028	0000 		DW	0
00029	0001 		DW	1
0002A	FFFF 		DW	65535
0002B	FFFF 		DW	65535
0002C	FFFF 		DW	65535
0002D	FFFF 		DW	65535
0002E	FFFF 		DW	65535
0002F	FFFF 		DW	65535
00030	FFFF 		DW	65535
00031	FFFF 		DW	65535
00032	FFFF 		DW	65535
00033	FFFF 		DW	65535
00034	FFFF 		DW	65535
00035	FFFF 		DW	65535
00036	FFFF 		DW	65535
00037	FFFF 		DW	65535
00038	FFFF 		DW	65535
00039	FFFF 		DW	65535
0003A	0002 		DW	2
0003B	0003 		DW	3
0003C	FFFF 		DW	65535
0003D	FFFF 		DW	65535
0003E	FFFF 		DW	65535
0003F	FFFF 		DW	65535
			PUBLIC _getBus
00040	----
00366			.area text(ROM,REL,CON)
		;            bus -> BP+2
00366		_getBus
00366	D2CF		LXS R7,BP+2
	0002 
00368	D749		CPI R7,-1
	FFFF 
0036A	E303 		JNZ L91
0036B	D048		LI R0,-1
	FFFF 
0036D	7814 		SJMP L90
		
0036E		L91
0036E	830D 		LW	R3,BP
0036F	C7B2 		LX	R7,DP0+R3+2
00370	D74B		ANI R7,-32768
	8000 
00372	B70D 		JRZ	R7,L93
00373	C7B2 		LX	R7,DP0+R3+2
00374	1F07 		ANI R7,7
00375	7E07 		XPUSH  R7
00376	C1B2 		LX	R1,DP0+R3+2
00377	F1D4 		SHR	R1,4
00378	190F 		ANI	R1,15
00379	D14A		ADI	R1,_dsp
	0000 R
0037B	C790 		LX R7,DP0+R1
0037C	7E07 		XPUSH  R7
0037D	D7C8		XCALL _OutBusOf
	035E R
0037F	7802 		SJMP L90
		
00380		L93
00380	D2C8		LXS R0,BP+2
	0002 
		
00382		L90
00382	D5C9 		XRET 1
00383	----
00383			.area text(ROM,REL,CON)
00383	----
00040			.area const(ROM,REL,CON)
00040	0000 	L96	DW	0
00041	0001 		DW	1
00042	0002 		DW	2
00043	0003 		DW	3
			PUBLIC _dspDesigner_InitAndRoute
00044	----
00383			.area text(ROM,REL,CON)
		;       dspIndex -> BP-14
		;           rout -> BP-10
		;              i -> BP-2
		;              j -> BP-1
00383		_dspDesigner_InitAndRoute
00383	C04C		SXSP  14
	000E 
00385	820D 		LW	R2,BP
00386	2A0E 		SBI	R2,14
00387	D148		LI	R1,L96
	0040 R
00389	0404 		LI	R4,4
			 
0038A	D0D0 		LX	R0,DP1+R1++
0038B	C8E0 		STX	R0,DP0+R2++
0038C	6CFD 		DJNZ	R4,$-2
0038D	D7C8		XCALL _dsp1InitAndRoute
	0000 RE
0038F	F890		STXA	R0,DP0,_dsp
	0000 R
00391	D7C8		XCALL _dsp2InitAndRoute
	0000 RE
00393	F890		STXA	R0,DP0,_dsp+1
	0001 R
00395	D7C8		XCALL _dsp3InitAndRoute
	0000 RE
00397	F890		STXA	R0,DP0,_dsp+2
	0002 R
00399	D7C8		XCALL _dsp4InitAndRoute
	0000 RE
0039B	D148		LI	R1,_dsp
	0000 R
0039D	C893 		STX	R0,DP0+R1+3
0039E	0700 		LI R7,0
0039F	D3CF		STXS R7,BP-2
	FFFE 
003A1	786C 		SJMP	L103
		
003A2		L100
003A2	0700 		LI R7,0
003A3	D3CF		STXS R7,BP-1
	FFFF 
003A5	7816 		SJMP L107
		
003A6		L104
003A6	830D 		LW	R3,BP
003A7	2B02 		SBI	R3,2
003A8	C6B0 		LX	R6,DP0+R3
003A9	F693 		SHL R6,3
003AA	D64A		ADI	R6,_dspRouting_In
	0000 R
003AC	C1B1 		LX	R1,DP0+R3+1
003AD	9106 		ADD R1,R6
003AE	D790 		LX R7,DP1+R1
003AF	7E07 		XPUSH  R7
003B0	D7C8		XCALL _getBus
	0366 R
003B2	860D 		LW R6,BP
003B3	2E0A 		SBI	R6,10
003B4	830D 		LW	R3,BP
003B5	2B02 		SBI	R3,2
003B6	C1B1 		LX	R1,DP0+R3+1
003B7	9106 		ADD R1,R6
003B8	C890 		STX R0,DP0+R1
		
003B9	C7B1 		LX	R7,DP0+R3+1
003BA	1701 		ADI R7,1
003BB	CFB1 		STX	R7,DP0+R3+1
		
003BC		L107
003BC	830D 		LW	R3,BP
003BD	2B02 		SBI	R3,2
003BE	C6B1 		LX	R6,DP0+R3+1
003BF	0E08 		CPI	R6,8
003C0	E1E5 		JB L104
003C1	870D 		LW R7,BP
003C2	2F0A 		SBI	R7,10
003C3	C74D 		PUSH	R7
003C4	870D 		LW R7,BP
003C5	2F0E 		SBI	R7,14
003C6	C1B0 		LX	R1,DP0+R3
003C7	9107 		ADD R1,R7
003C8	C190 		LX	R1,DP0+R1
003C9	D648		LI R6,_dsp
	0000 R
003CB	9106 		ADD R1,R6
003CC	C490 		LX	R4,DP0+R1
003CD	C24F 		POP	R2
003CE	D6C8		LCALL	__DSProutInEx$R4R2$R1R7
	0000 RE
003D0	0700 		LI R7,0
003D1	D3CF		STXS R7,BP-1
	FFFF 
003D3	7816 		SJMP L111
		
003D4		L108
003D4	830D 		LW	R3,BP
003D5	2B02 		SBI	R3,2
003D6	C6B0 		LX	R6,DP0+R3
003D7	F693 		SHL R6,3
003D8	D64A		ADI	R6,_dspRouting_Out
	0020 R
003DA	C1B1 		LX	R1,DP0+R3+1
003DB	9106 		ADD R1,R6
003DC	D790 		LX R7,DP1+R1
003DD	7E07 		XPUSH  R7
003DE	D7C8		XCALL _getBus
	0366 R
003E0	860D 		LW R6,BP
003E1	2E0A 		SBI	R6,10
003E2	830D 		LW	R3,BP
003E3	2B02 		SBI	R3,2
003E4	C1B1 		LX	R1,DP0+R3+1
003E5	9106 		ADD R1,R6
003E6	C890 		STX R0,DP0+R1
		
003E7	C7B1 		LX	R7,DP0+R3+1
003E8	1701 		ADI R7,1
003E9	CFB1 		STX	R7,DP0+R3+1
		
003EA		L111
003EA	830D 		LW	R3,BP
003EB	2B02 		SBI	R3,2
003EC	C6B1 		LX	R6,DP0+R3+1
003ED	0E08 		CPI	R6,8
003EE	E1E5 		JB L108
003EF	870D 		LW R7,BP
003F0	2F0A 		SBI	R7,10
003F1	C74D 		PUSH	R7
003F2	870D 		LW R7,BP
003F3	2F0E 		SBI	R7,14
003F4	C1B0 		LX	R1,DP0+R3
003F5	9107 		ADD R1,R7
003F6	C190 		LX	R1,DP0+R1
003F7	D648		LI R6,_dsp
	0000 R
003F9	9106 		ADD R1,R6
003FA	C190 		LX	R1,DP0+R1
003FB	C24F 		POP	R2
003FC	D6C8		LCALL	__DSProutEx$R1R2$R3
	0000 RE
003FE	870D 		LW R7,BP
003FF	2F0E 		SBI	R7,14
00400	C1B0 		LX	R1,DP0+R3
00401	9107 		ADD R1,R7
00402	C190 		LX	R1,DP0+R1
00403	D648		LI R6,_dsp
	0000 R
00405	9106 		ADD R1,R6
00406	C490 		LX	R4,DP0+R1
00407	D6C8		LCALL	__StartDSP$R4$
	0000 RE
		
00409	830D 		LW	R3,BP
0040A	2B02 		SBI	R3,2
0040B	C7B0 		LX	R7,DP0+R3
0040C	1701 		ADI R7,1
0040D	CFB0 		STX	R7,DP0+R3
		
0040E		L103
0040E	D2CE		LXS R6,BP-2
	FFFE 
00410	0E04 		CPI	R6,4
00411	E190 		JB	L100
		
00412	D5C8 		XRET 0
			EXTRN _sendSysExMessage
			EXTRN _SetFilterType
			EXTRN _SetFilterQ
			EXTRN _SetFilterFreq
			EXTRN _SetFilterGain
			EXTRN __MixPA_Biquad_Flat
			EXTRN __MixPA_Biquad_UpdateCoeff
			EXTRN _dsp4InitAndRoute
			EXTRN _dsp3InitAndRoute
			EXTRN _dsp2InitAndRoute
			EXTRN _dsp1InitAndRoute
00413	----
00000			.area bss(RAM,REL,CON)
			PUBLIC _dsp
00000		_dsp	DS 4
			EXTRN _dichotomicSearch
			EXTRN	_resolveNrpn
			EXTRN	__MixPA_Delay_OnOff$R4R1R0$
			EXTRN	__MixPA_Delay_SetTime$R4R1R7R6$
			EXTRN	__MixPA_Delay_OutGainValue$R4R1R7$
			EXTRN	__MixPA_Delay_OutGainPhase$R4R1R0$
			EXTRN	__MixPA_Biquad_OnOff$R4R1R0$
			EXTRN	__MixPA_Biquad_InGainPhase$R4R1R0$
			EXTRN	__MixPA_Biquad_InGainValue$R4R1R7$
			EXTRN	__MixPA_Gain_Value$R4R1R7$
			EXTRN	__MixPA_Gain_Phase$R4R1R0$
			EXTRN	__MixPA_LevelDetect_Attack$R4R1R7$
			EXTRN	__MixPA_LevelDetect_Release$R4R1R7$
			EXTRN	__MixPA_Compressor_GetGainReduction$R4R1$
			EXTRN	__MixPA_Compressor_OnOff$R4R1R0$
			EXTRN	__MixPA_Compressor_Threshold$R4R1R0$
			EXTRN	__MixPA_Compressor_Ratio$R4R1R7$
			EXTRN	__MixPA_Compressor_Boost$R4R1R7$
			EXTRN	__MixPA_Compressor_BoostPhase$R4R1R0$
			EXTRN	__DSProutInEx$R4R2$R1R7
			EXTRN	__DSProutEx$R1R2$R3
			EXTRN	__StartDSP$R4$
00004	----
!0 error(s) 0 warning(s)
